; Function Attrs: mustprogress uwtable
define hidden void @_ZN4cvc58internal6theory5arith6linear14ArithVariables7VarInfo10initializeEjNS0_12NodeTemplateILb1EEEb(ptr nocapture noundef nonnull align 8 dereferenceable(113) %this, i32 noundef %v, ptr noundef %n, i1 noundef zeroext %aux) local_unnamed_addr #3 align 2 personality ptr @__gxx_personality_v0 {
entry:
  %p = alloca %"class.cvc5::internal::theory::arith::linear::Polynomial", align 8
  %agg.tmp = alloca %"class.cvc5::internal::NodeTemplate.28", align 8
  %ref.tmp = alloca %"class.cvc5::internal::TypeNode", align 8
  %frombool = zext i1 %aux to i8
  store i32 %v, ptr %this, align 8
  %d_node = getelementptr inbounds i8, ptr %this, i64 104
  %0 = load ptr, ptr %d_node, align 8
  %1 = load ptr, ptr %n, align 8
  %cmp.not.i = icmp eq ptr %0, %1
  br i1 %cmp.not.i, label %_ZN4cvc58internal12NodeTemplateILb1EEaSERKS2_.exit, label %if.then.i

if.then.i:                                        ; preds = %entry
  %bf.load.i.i = load i64, ptr %0, align 8
  %2 = and i64 %bf.load.i.i, 1152920405095219200
  %cmp.not.i.i = icmp eq i64 %2, 1152920405095219200
  br i1 %cmp.not.i.i, label %_ZN4cvc58internal4expr9NodeValue3decEv.exit.i, label %if.then.i.i

if.then.i.i:                                      ; preds = %if.then.i
  %bf.value.i.i = add i64 %bf.load.i.i, 1152920405095219200
  %bf.shl.i.i = and i64 %bf.value.i.i, 1152920405095219200
  %bf.clear7.i.i = and i64 %bf.load.i.i, -1152920405095219201
  %bf.set.i.i = or disjoint i64 %bf.shl.i.i, %bf.clear7.i.i
  store i64 %bf.set.i.i, ptr %0, align 8
  %cmp12.i.i = icmp eq i64 %bf.shl.i.i, 0
  br i1 %cmp12.i.i, label %if.then13.i.i, label %_ZN4cvc58internal4expr9NodeValue3decEv.exit.i

if.then13.i.i:                                    ; preds = %if.then.i.i
  tail call void @_ZN4cvc58internal4expr9NodeValue15markForDeletionEv(ptr noundef nonnull align 8 dereferenceable(16) %0)
  br label %_ZN4cvc58internal4expr9NodeValue3decEv.exit.i

_ZN4cvc58internal4expr9NodeValue3decEv.exit.i:    ; preds = %if.then13.i.i, %if.then.i.i, %if.then.i
  %3 = load ptr, ptr %n, align 8
  store ptr %3, ptr %d_node, align 8
  %bf.load.i2.i = load i64, ptr %3, align 8
  %bf.lshr.i.i = lshr i64 %bf.load.i2.i, 40
  %4 = trunc i64 %bf.lshr.i.i to i32
  %bf.cast.i.i = and i32 %4, 1048575
  %cmp.i.i = icmp ult i32 %bf.cast.i.i, 1048574
  br i1 %cmp.i.i, label %if.then.i5.i, label %if.else.i.i

if.then.i5.i:                                     ; preds = %_ZN4cvc58internal4expr9NodeValue3decEv.exit.i
  %bf.value.i6.i = add i64 %bf.load.i2.i, 1099511627776
  %bf.shl.i7.i = and i64 %bf.value.i6.i, 1152920405095219200
  %bf.clear7.i8.i = and i64 %bf.load.i2.i, -1152920405095219201
  %bf.set.i9.i = or disjoint i64 %bf.shl.i7.i, %bf.clear7.i8.i
  store i64 %bf.set.i9.i, ptr %3, align 8
  br label %_ZN4cvc58internal12NodeTemplateILb1EEaSERKS2_.exit

if.else.i.i:                                      ; preds = %_ZN4cvc58internal4expr9NodeValue3decEv.exit.i
  %cmp12.i3.i = icmp eq i32 %bf.cast.i.i, 1048574
  br i1 %cmp12.i3.i, label %if.then13.i4.i, label %_ZN4cvc58internal12NodeTemplateILb1EEaSERKS2_.exit

if.then13.i4.i:                                   ; preds = %if.else.i.i
  %bf.set23.i.i = or i64 %bf.load.i2.i, 1152920405095219200
  store i64 %bf.set23.i.i, ptr %3, align 8
  tail call void @_ZN4cvc58internal4expr9NodeValue20markRefCountMaxedOutEv(ptr noundef nonnull align 8 dereferenceable(16) %3)
  br label %_ZN4cvc58internal12NodeTemplateILb1EEaSERKS2_.exit

_ZN4cvc58internal12NodeTemplateILb1EEaSERKS2_.exit: ; preds = %entry, %if.then.i5.i, %if.else.i.i, %if.then13.i4.i
  %d_auxiliary = getelementptr inbounds i8, ptr %this, i64 112
  store i8 %frombool, ptr %d_auxiliary, align 8
  br i1 %aux, label %if.then, label %if.else

if.then:                                          ; preds = %_ZN4cvc58internal12NodeTemplateILb1EEaSERKS2_.exit
  %5 = load ptr, ptr %n, align 8
  store ptr %5, ptr %agg.tmp, align 8
  %bf.load.i.i2 = load i64, ptr %5, align 8
  %bf.lshr.i.i3 = lshr i64 %bf.load.i.i2, 40
  %6 = trunc i64 %bf.lshr.i.i3 to i32
  %bf.cast.i.i4 = and i32 %6, 1048575
  %cmp.i.i5 = icmp ult i32 %bf.cast.i.i4, 1048574
  br i1 %cmp.i.i5, label %if.then.i.i10, label %if.else.i.i6

if.then.i.i10:                                    ; preds = %if.then
  %bf.value.i.i11 = add i64 %bf.load.i.i2, 1099511627776
  %bf.shl.i.i12 = and i64 %bf.value.i.i11, 1152920405095219200
  %bf.clear7.i.i13 = and i64 %bf.load.i.i2, -1152920405095219201
  %bf.set.i.i14 = or disjoint i64 %bf.shl.i.i12, %bf.clear7.i.i13
  store i64 %bf.set.i.i14, ptr %5, align 8
  br label %_ZN4cvc58internal12NodeTemplateILb1EEC2ERKS2_.exit

if.else.i.i6:                                     ; preds = %if.then
  %cmp12.i.i7 = icmp eq i32 %bf.cast.i.i4, 1048574
  br i1 %cmp12.i.i7, label %if.then13.i.i8, label %_ZN4cvc58internal12NodeTemplateILb1EEC2ERKS2_.exit

if.then13.i.i8:                                   ; preds = %if.else.i.i6
  %bf.set23.i.i9 = or i64 %bf.load.i.i2, 1152920405095219200
  store i64 %bf.set23.i.i9, ptr %5, align 8
  tail call void @_ZN4cvc58internal4expr9NodeValue20markRefCountMaxedOutEv(ptr noundef nonnull align 8 dereferenceable(16) %5)
  br label %_ZN4cvc58internal12NodeTemplateILb1EEC2ERKS2_.exit

_ZN4cvc58internal12NodeTemplateILb1EEC2ERKS2_.exit: ; preds = %if.then.i.i10, %if.else.i.i6, %if.then13.i.i8
  invoke void @_ZN4cvc58internal6theory5arith6linear10Polynomial15parsePolynomialENS0_12NodeTemplateILb1EEE(ptr nonnull sret(%"class.cvc5::internal::theory::arith::linear::Polynomial") align 8 %p, ptr noundef nonnull %agg.tmp)
          to label %invoke.cont unwind label %lpad

invoke.cont:                                      ; preds = %_ZN4cvc58internal12NodeTemplateILb1EEC2ERKS2_.exit
  %7 = load ptr, ptr %agg.tmp, align 8
  %bf.load.i.i15 = load i64, ptr %7, align 8
  %8 = and i64 %bf.load.i.i15, 1152920405095219200
  %cmp.not.i.i16 = icmp eq i64 %8, 1152920405095219200
  br i1 %cmp.not.i.i16, label %_ZN4cvc58internal12NodeTemplateILb1EED2Ev.exit, label %if.then.i.i17

if.then.i.i17:                                    ; preds = %invoke.cont
  %bf.value.i.i18 = add i64 %bf.load.i.i15, 1152920405095219200
  %bf.shl.i.i19 = and i64 %bf.value.i.i18, 1152920405095219200
  %bf.clear7.i.i20 = and i64 %bf.load.i.i15, -1152920405095219201
  %bf.set.i.i21 = or disjoint i64 %bf.shl.i.i19, %bf.clear7.i.i20
  store i64 %bf.set.i.i21, ptr %7, align 8
  %cmp12.i.i22 = icmp eq i64 %bf.shl.i.i19, 0
  br i1 %cmp12.i.i22, label %if.then13.i.i23, label %_ZN4cvc58internal12NodeTemplateILb1EED2Ev.exit

if.then13.i.i23:                                  ; preds = %if.then.i.i17
  invoke void @_ZN4cvc58internal4expr9NodeValue15markForDeletionEv(ptr noundef nonnull align 8 dereferenceable(16) %7)
          to label %_ZN4cvc58internal12NodeTemplateILb1EED2Ev.exit unwind label %terminate.lpad.i

terminate.lpad.i:                                 ; preds = %if.then13.i.i23
  %9 = landingpad { ptr, i32 }
          catch ptr null
  %10 = extractvalue { ptr, i32 } %9, 0
  call void @__clang_call_terminate(ptr %10) #27
  unreachable

_ZN4cvc58internal12NodeTemplateILb1EED2Ev.exit:   ; preds = %invoke.cont, %if.then.i.i17, %if.then13.i.i23
  %call7 = invoke noundef zeroext i1 @_ZNK4cvc58internal6theory5arith6linear10Polynomial10isIntegralEv(ptr noundef nonnull align 8 dereferenceable(9) %p)
          to label %invoke.cont6 unwind label %lpad5

invoke.cont6:                                     ; preds = %_ZN4cvc58internal12NodeTemplateILb1EED2Ev.exit
  %cond = select i1 %call7, i32 2, i32 1
  %d_type = getelementptr inbounds i8, ptr %this, i64 100
  store i32 %cond, ptr %d_type, align 4
  %11 = load ptr, ptr %p, align 8
  %bf.load.i.i.i.i = load i64, ptr %11, align 8
  %12 = and i64 %bf.load.i.i.i.i, 1152920405095219200
  %cmp.not.i.i.i.i = icmp eq i64 %12, 1152920405095219200
  br i1 %cmp.not.i.i.i.i, label %if.end, label %if.then.i.i.i.i

if.then.i.i.i.i:                                  ; preds = %invoke.cont6
  %bf.value.i.i.i.i = add i64 %bf.load.i.i.i.i, 1152920405095219200
  %bf.shl.i.i.i.i = and i64 %bf.value.i.i.i.i, 1152920405095219200
  %bf.clear7.i.i.i.i = and i64 %bf.load.i.i.i.i, -1152920405095219201
  %bf.set.i.i.i.i = or disjoint i64 %bf.shl.i.i.i.i, %bf.clear7.i.i.i.i
  store i64 %bf.set.i.i.i.i, ptr %11, align 8
  %cmp12.i.i.i.i = icmp eq i64 %bf.shl.i.i.i.i, 0
  br i1 %cmp12.i.i.i.i, label %if.then13.i.i.i.i, label %if.end

if.then13.i.i.i.i:                                ; preds = %if.then.i.i.i.i
  invoke void @_ZN4cvc58internal4expr9NodeValue15markForDeletionEv(ptr noundef nonnull align 8 dereferenceable(16) %11)
          to label %if.end unwind label %terminate.lpad.i.i.i

terminate.lpad.i.i.i:                             ; preds = %if.then13.i.i.i.i
  %13 = landingpad { ptr, i32 }
          catch ptr null
  %14 = extractvalue { ptr, i32 } %13, 0
  call void @__clang_call_terminate(ptr %14) #27
  unreachable

lpad:                                             ; preds = %_ZN4cvc58internal12NodeTemplateILb1EEC2ERKS2_.exit
  %15 = landingpad { ptr, i32 }
          cleanup
  call void @_ZN4cvc58internal12NodeTemplateILb1EED2Ev(ptr noundef nonnull align 8 dereferenceable(8) %agg.tmp) #25
  br label %eh.resume

lpad5:                                            ; preds = %_ZN4cvc58internal12NodeTemplateILb1EED2Ev.exit
  %16 = landingpad { ptr, i32 }
          cleanup
  call void @_ZN4cvc58internal6theory5arith6linear10PolynomialD2Ev(ptr noundef nonnull align 8 dereferenceable(9) %p) #25
  br label %eh.resume

if.else:                                          ; preds = %_ZN4cvc58internal12NodeTemplateILb1EEaSERKS2_.exit
  call void @_ZNK4cvc58internal12NodeTemplateILb1EE7getTypeEb(ptr nonnull sret(%"class.cvc5::internal::TypeNode") align 8 %ref.tmp, ptr noundef nonnull align 8 dereferenceable(8) %n, i1 noundef zeroext false)
  %call10 = invoke noundef zeroext i1 @_ZNK4cvc58internal8TypeNode9isIntegerEv(ptr noundef nonnull align 8 dereferenceable(8) %ref.tmp)
          to label %invoke.cont9 unwind label %lpad8

invoke.cont9:                                     ; preds = %if.else
  %cond11 = select i1 %call10, i32 2, i32 1
  %d_type12 = getelementptr inbounds i8, ptr %this, i64 100
  store i32 %cond11, ptr %d_type12, align 4
  %17 = load ptr, ptr %ref.tmp, align 8
  %bf.load.i.i24 = load i64, ptr %17, align 8
  %18 = and i64 %bf.load.i.i24, 1152920405095219200
  %cmp.not.i.i25 = icmp eq i64 %18, 1152920405095219200
  br i1 %cmp.not.i.i25, label %if.end, label %if.then.i.i26

if.then.i.i26:                                    ; preds = %invoke.cont9
  %bf.value.i.i27 = add i64 %bf.load.i.i24, 1152920405095219200
  %bf.shl.i.i28 = and i64 %bf.value.i.i27, 1152920405095219200
  %bf.clear7.i.i29 = and i64 %bf.load.i.i24, -1152920405095219201
  %bf.set.i.i30 = or disjoint i64 %bf.shl.i.i28, %bf.clear7.i.i29
  store i64 %bf.set.i.i30, ptr %17, align 8
  %cmp12.i.i31 = icmp eq i64 %bf.shl.i.i28, 0
  br i1 %cmp12.i.i31, label %if.then13.i.i32, label %if.end

if.then13.i.i32:                                  ; preds = %if.then.i.i26
  invoke void @_ZN4cvc58internal4expr9NodeValue15markForDeletionEv(ptr noundef nonnull align 8 dereferenceable(16) %17)
          to label %if.end unwind label %terminate.lpad.i33

terminate.lpad.i33:                               ; preds = %if.then13.i.i32
  %19 = landingpad { ptr, i32 }
          catch ptr null
  %20 = extractvalue { ptr, i32 } %19, 0
  call void @__clang_call_terminate(ptr %20) #27
  unreachable

lpad8:                                            ; preds = %if.else
  %21 = landingpad { ptr, i32 }
          cleanup
  call void @_ZN4cvc58internal8TypeNodeD2Ev(ptr noundef nonnull align 8 dereferenceable(8) %ref.tmp) #25
  br label %eh.resume

if.end:                                           ; preds = %if.then13.i.i32, %if.then.i.i26, %invoke.cont9, %if.then13.i.i.i.i, %if.then.i.i.i.i, %invoke.cont6
  ret void

eh.resume:                                        ; preds = %lpad8, %lpad5, %lpad
  %.pn = phi { ptr, i32 } [ %16, %lpad5 ], [ %15, %lpad ], [ %21, %lpad8 ]
  resume { ptr, i32 } %.pn
}